; Function Attrs: mustprogress uwtable
define hidden void @_ZN5osgeo4proj9operation18PROJBasedOperationC2ERKN7dropbox6oxygen2nnISt10shared_ptrINS1_15OperationMethodEEEE(ptr noundef nonnull align 8 dereferenceable(65) %0, ptr noundef %1, ptr noundef nonnull align 8 dereferenceable(16) %2) unnamed_addr #4 align 2 {
  %4 = getelementptr inbounds i8, ptr %1, i64 8
  tail call void @_ZN5osgeo4proj9operation15SingleOperationC2ERKN7dropbox6oxygen2nnISt10shared_ptrINS1_15OperationMethodEEEE(ptr noundef nonnull align 8 dereferenceable(16) %0, ptr noundef nonnull %4, ptr noundef nonnull align 8 dereferenceable(16) %2)
  %5 = load ptr, ptr %1, align 8
  store ptr %5, ptr %0, align 8
  %6 = getelementptr inbounds i8, ptr %1, i64 56
  %7 = load ptr, ptr %6, align 8
  %8 = getelementptr i8, ptr %5, i64 -24
  %9 = load i64, ptr %8, align 8
  %10 = getelementptr inbounds i8, ptr %0, i64 %9
  store ptr %7, ptr %10, align 8
  %11 = getelementptr inbounds i8, ptr %1, i64 64
  %12 = load ptr, ptr %11, align 8
  %13 = load ptr, ptr %0, align 8
  %14 = getelementptr i8, ptr %13, i64 -24
  %15 = load i64, ptr %14, align 8
  %16 = getelementptr i8, ptr %0, i64 %15
  %17 = getelementptr i8, ptr %16, i64 16
  store ptr %12, ptr %17, align 8
  %18 = getelementptr inbounds i8, ptr %1, i64 72
  %19 = load ptr, ptr %18, align 8
  %20 = load ptr, ptr %0, align 8
  %21 = getelementptr i8, ptr %20, i64 -24
  %22 = load i64, ptr %21, align 8
  %23 = getelementptr i8, ptr %0, i64 %22
  %24 = getelementptr i8, ptr %23, i64 24
  store ptr %19, ptr %24, align 8
  %25 = getelementptr inbounds i8, ptr %1, i64 80
  %26 = load ptr, ptr %25, align 8
  %27 = load ptr, ptr %0, align 8
  %28 = getelementptr i8, ptr %27, i64 -24
  %29 = load i64, ptr %28, align 8
  %30 = getelementptr i8, ptr %0, i64 %29
  %31 = getelementptr i8, ptr %30, i64 48
  store ptr %26, ptr %31, align 8
  %32 = getelementptr inbounds i8, ptr %1, i64 88
  %33 = load ptr, ptr %32, align 8
  %34 = load ptr, ptr %0, align 8
  %35 = getelementptr i8, ptr %34, i64 -24
  %36 = load i64, ptr %35, align 8
  %37 = getelementptr i8, ptr %0, i64 %36
  %38 = getelementptr i8, ptr %37, i64 56
  store ptr %33, ptr %38, align 8
  %39 = getelementptr inbounds i8, ptr %0, i64 16
  tail call void @_ZNSt7__cxx1112basic_stringIcSt11char_traitsIcESaIcEEC1Ev(ptr noundef nonnull align 8 dereferenceable(32) %39) #14
  %40 = getelementptr inbounds i8, ptr %0, i64 48
  tail call void @llvm.memset.p0.i64(ptr noundef nonnull align 8 dereferenceable(17) %40, i8 0, i64 17, i1 false)
  ret void
}